target datalayout = "e-m:e-p270:32:32-p271:32:32-p272:64:64-i64:64-i128:128-f80:128-n8:16:32:64-S128"
target triple = "x86_64-pc-linux-gnu"

; Function Attrs: nounwind uwtable
define i64 @_testfunc_bitfield_by_reference1(ptr noundef %0) #0 {
  %2 = alloca ptr, align 8
  %3 = alloca i64, align 8
  store ptr %0, ptr %2, align 8, !tbaa !7
  call void @llvm.lifetime.start.p0(i64 8, ptr %3) #12
  %4 = load ptr, ptr %2, align 8, !tbaa !7
  %5 = load i8, ptr %4, align 4
  %6 = shl i8 %5, 7
  %7 = ashr i8 %6, 7
  %8 = sext i8 %7 to i32
  %9 = load ptr, ptr %2, align 8, !tbaa !7
  %10 = load i8, ptr %9, align 4
  %11 = shl i8 %10, 5
  %12 = ashr i8 %11, 6
  %13 = sext i8 %12 to i32
  %14 = add i32 %8, %13
  %15 = load ptr, ptr %2, align 8, !tbaa !7
  %16 = load i8, ptr %15, align 4
  %17 = shl i8 %16, 2
  %18 = ashr i8 %17, 5
  %19 = sext i8 %18 to i32
  %20 = add i32 %14, %19
  %21 = load ptr, ptr %2, align 8, !tbaa !7
  %22 = load i8, ptr %21, align 4
  %23 = ashr i8 %22, 6
  %24 = sext i8 %23 to i32
  %25 = add i32 %20, %24
  %26 = sext i32 %25 to i64
  store i64 %26, ptr %3, align 8, !tbaa !35
  %27 = load ptr, ptr %2, align 8, !tbaa !7
  call void @llvm.memset.p0.i64(ptr align 4 %27, i8 0, i64 4, i1 false)
  %28 = load i64, ptr %3, align 8, !tbaa !35
  call void @llvm.lifetime.end.p0(i64 8, ptr %3) #12
  ret i64 %28
}