; Function Attrs: mustprogress nofree norecurse nosync nounwind willreturn memory(argmem: readwrite) uwtable
define range(i64 -9, 6) i64 @_testfunc_bitfield_by_reference1(ptr noundef captures(none) initializes((1, 4)) %0) local_unnamed_addr #12 {
  %2 = load i8, ptr %0, align 4
  %3 = and i8 %2, 1
  %4 = shl i8 %2, 5
  %5 = ashr i8 %4, 6
  %6 = shl i8 %2, 2
  %7 = ashr i8 %6, 5
  %8 = ashr i8 %2, 6
  %narrow = sub nsw i8 %8, %3
  %narrow5 = add nsw i8 %narrow, %5
  %narrow6 = add nsw i8 %narrow5, %7
  %9 = sext i8 %narrow6 to i64
  store i32 0, ptr %0, align 4
  ret i64 %9
}